target datalayout = "e-m:e-p270:32:32-p271:32:32-p272:64:64-i64:64-i128:128-f80:128-n8:16:32:64-S128"
target triple = "x86_64-pc-linux-gnu"

%class.CallGenerator = type { ptr, ptr }
%class.Phase = type { i32, ptr }
%class.GraphKit = type <{ ptr, %class.Phase, ptr, ptr, ptr, ptr, i32, [4 x i8], ptr, ptr, i32, [4 x i8] }>
%class.GrowableArrayBase = type { i32, i32 }
%class.GrowableArrayMetadata = type { i64 }
%class.ciFlags = type <{ i32, i8, i8, [2 x i8] }>
%class.ciMethod = type { %class.ciMetadata, %class.ciFlags, ptr, ptr, ptr, ptr, ptr, i32, i32, i32, i32, i32, i32, i32, i32, i32, i8, i8, i8, i8, i8, i8, i8, i8, i8, ptr, ptr, ptr, ptr, ptr }
%class.ciMetadata = type { %class.ciBaseObject.base, ptr }
%class.ciBaseObject.base = type <{ ptr, i32 }>
%class.ciSignature = type <{ ptr, ptr, %class.GrowableArray.12, ptr, i32, [4 x i8] }>
%class.GrowableArray.12 = type { %class.GrowableArrayWithAllocator.13, %class.GrowableArrayMetadata }
%class.GrowableArrayWithAllocator.13 = type { %class.GrowableArrayView.14 }
%class.GrowableArrayView.14 = type { %class.GrowableArrayBase, ptr }
%class.UncommonTrapCallGenerator = type { %class.CallGenerator, i32, i32 }

@.str.19 = private unnamed_addr constant [28 x i8] c"monomorphic vcall checkcast\00", align 1

; Function Attrs: mustprogress nounwind uwtable
define linkonce_odr hidden noundef i32 @_ZN14Deoptimization17make_trap_requestENS_11DeoptReasonENS_11DeoptActionEi(i32 noundef %0, i32 noundef %1, i32 noundef %2) #1 comdat align 2 {
  %4 = alloca i32, align 4
  %5 = alloca i32, align 4
  %6 = alloca i32, align 4
  %7 = alloca i32, align 4
  store i32 %0, ptr %4, align 4
  store i32 %1, ptr %5, align 4
  store i32 %2, ptr %6, align 4
  %8 = load i32, ptr %6, align 4
  %9 = icmp ne i32 %8, -1
  br i1 %9, label %10, label %12

10:                                               ; preds = %3
  %11 = load i32, ptr %6, align 4
  store i32 %11, ptr %7, align 4
  br label %19

12:                                               ; preds = %3
  %13 = load i32, ptr %4, align 4
  %14 = shl i32 %13, 3
  %15 = load i32, ptr %5, align 4
  %16 = shl i32 %15, 0
  %17 = add nsw i32 %14, %16
  %18 = xor i32 %17, -1
  store i32 %18, ptr %7, align 4
  br label %19

19:                                               ; preds = %12, %10
  %20 = load i32, ptr %7, align 4
  ret i32 %20
}

; Function Attrs: mustprogress nounwind uwtable
define linkonce_odr hidden void @_ZN8GraphKit6set_spEi(ptr noundef nonnull align 8 dereferenceable(84) %0, i32 noundef %1) #1 comdat align 2 {
  %3 = alloca ptr, align 8
  %4 = alloca i32, align 4
  store ptr %0, ptr %3, align 8
  store i32 %1, ptr %4, align 4
  %5 = load ptr, ptr %3, align 8
  %6 = load i32, ptr %4, align 4
  %7 = getelementptr inbounds %class.GraphKit, ptr %5, i32 0, i32 10
  store i32 %6, ptr %7, align 8
  ret void
}

; Function Attrs: mustprogress nounwind uwtable
define linkonce_odr hidden noundef i32 @_ZNK8GraphKit2spEv(ptr noundef nonnull align 8 dereferenceable(84) %0) #1 comdat align 2 {
  %2 = alloca ptr, align 8
  store ptr %0, ptr %2, align 8
  %3 = load ptr, ptr %2, align 8
  %4 = getelementptr inbounds %class.GraphKit, ptr %3, i32 0, i32 10
  %5 = load i32, ptr %4, align 8
  ret i32 %5
}

; Function Attrs: mustprogress nounwind uwtable
define linkonce_odr hidden noundef zeroext i1 @_ZNK7ciFlags9is_staticEv(ptr noundef nonnull align 4 dereferenceable(6) %0) #1 comdat align 2 {
  %2 = alloca ptr, align 8
  store ptr %0, ptr %2, align 8
  %3 = load ptr, ptr %2, align 8
  %4 = getelementptr inbounds %class.ciFlags, ptr %3, i32 0, i32 0
  %5 = load i32, ptr %4, align 4
  %6 = and i32 %5, 8
  %7 = icmp ne i32 %6, 0
  ret i1 %7
}

; Function Attrs: mustprogress nounwind uwtable
define linkonce_odr hidden noundef i32 @_ZNK11ciSignature4sizeEv(ptr noundef nonnull align 8 dereferenceable(52) %0) #1 comdat align 2 {
  %2 = alloca ptr, align 8
  store ptr %0, ptr %2, align 8
  %3 = load ptr, ptr %2, align 8
  %4 = getelementptr inbounds %class.ciSignature, ptr %3, i32 0, i32 4
  %5 = load i32, ptr %4, align 8
  ret i32 %5
}

; Function Attrs: mustprogress nounwind uwtable
define linkonce_odr hidden void @_ZNK8ciMethod15check_is_loadedEv(ptr noundef nonnull align 8 dereferenceable(160) %0) #1 comdat align 2 {
  %2 = alloca ptr, align 8
  store ptr %0, ptr %2, align 8
  ret void
}

; Function Attrs: mustprogress nounwind uwtable
define linkonce_odr hidden noundef ptr @_ZN8GraphKit13uncommon_trapEN14Deoptimization11DeoptReasonENS0_11DeoptActionEP7ciKlassPKcbb(ptr noundef nonnull align 8 dereferenceable(84) %0, i32 noundef %1, i32 noundef %2, ptr noundef %3, ptr noundef %4, i1 noundef zeroext %5, i1 noundef zeroext %6) #1 comdat align 2 {
  %8 = alloca ptr, align 8
  %9 = alloca i32, align 4
  %10 = alloca i32, align 4
  %11 = alloca ptr, align 8
  %12 = alloca ptr, align 8
  %13 = alloca i8, align 1
  %14 = alloca i8, align 1
  store ptr %0, ptr %8, align 8
  store i32 %1, ptr %9, align 4
  store i32 %2, ptr %10, align 4
  store ptr %3, ptr %11, align 8
  store ptr %4, ptr %12, align 8
  %15 = zext i1 %5 to i8
  store i8 %15, ptr %13, align 1
  %16 = zext i1 %6 to i8
  store i8 %16, ptr %14, align 1
  %17 = load ptr, ptr %8, align 8
  %18 = load i32, ptr %9, align 4
  %19 = load i32, ptr %10, align 4
  %20 = call noundef i32 @_ZN14Deoptimization17make_trap_requestENS_11DeoptReasonENS_11DeoptActionEi(i32 noundef %18, i32 noundef %19, i32 noundef -1)
  %21 = load ptr, ptr %11, align 8
  %22 = load ptr, ptr %12, align 8
  %23 = load i8, ptr %13, align 1
  %24 = trunc i8 %23 to i1
  %25 = load i8, ptr %14, align 1
  %26 = trunc i8 %25 to i1
  %27 = call noundef ptr @_ZN8GraphKit13uncommon_trapEiP7ciKlassPKcbb(ptr noundef nonnull align 8 dereferenceable(84) %17, i32 noundef %20, ptr noundef %21, ptr noundef %22, i1 noundef zeroext %24, i1 noundef zeroext %26)
  ret ptr %27
}

; Function Attrs: mustprogress nounwind uwtable
define linkonce_odr hidden void @_ZN8GraphKit6inc_spEi(ptr noundef nonnull align 8 dereferenceable(84) %0, i32 noundef %1) #1 comdat align 2 {
  %3 = alloca ptr, align 8
  %4 = alloca i32, align 4
  store ptr %0, ptr %3, align 8
  store i32 %1, ptr %4, align 4
  %5 = load ptr, ptr %3, align 8
  %6 = call noundef i32 @_ZNK8GraphKit2spEv(ptr noundef nonnull align 8 dereferenceable(84) %5)
  %7 = load i32, ptr %4, align 4
  %8 = add nsw i32 %6, %7
  call void @_ZN8GraphKit6set_spEi(ptr noundef nonnull align 8 dereferenceable(84) %5, i32 noundef %8)
  ret void
}

; Function Attrs: mustprogress nounwind uwtable
define linkonce_odr hidden noundef i32 @_ZNK8ciMethod8arg_sizeEv(ptr noundef nonnull align 8 dereferenceable(160) %0) #1 comdat align 2 {
  %2 = alloca ptr, align 8
  store ptr %0, ptr %2, align 8
  %3 = load ptr, ptr %2, align 8
  call void @_ZNK8ciMethod15check_is_loadedEv(ptr noundef nonnull align 8 dereferenceable(160) %3)
  %4 = getelementptr inbounds %class.ciMethod, ptr %3, i32 0, i32 4
  %5 = load ptr, ptr %4, align 8
  %6 = call noundef i32 @_ZNK11ciSignature4sizeEv(ptr noundef nonnull align 8 dereferenceable(52) %5)
  %7 = getelementptr inbounds %class.ciMethod, ptr %3, i32 0, i32 1
  %8 = call noundef zeroext i1 @_ZNK7ciFlags9is_staticEv(ptr noundef nonnull align 4 dereferenceable(6) %7)
  %9 = select i1 %8, i32 0, i32 1
  %10 = add nsw i32 %6, %9
  ret i32 %10
}

; Function Attrs: mustprogress nounwind uwtable
define linkonce_odr hidden noundef ptr @_ZN8ciMethod17get_method_at_bciEi(ptr noundef nonnull align 8 dereferenceable(160) %0, i32 noundef %1) #1 comdat align 2 {
  %3 = alloca ptr, align 8
  %4 = alloca i32, align 4
  %5 = alloca i8, align 1
  %6 = alloca ptr, align 8
  store ptr %0, ptr %3, align 8
  store i32 %1, ptr %4, align 4
  %7 = load ptr, ptr %3, align 8
  %8 = load i32, ptr %4, align 4
  %9 = call noundef ptr @_ZN8ciMethod17get_method_at_bciEiRbPP11ciSignature(ptr noundef nonnull align 8 dereferenceable(160) %7, i32 noundef %8, ptr noundef nonnull align 1 dereferenceable(1) %5, ptr noundef %6)
  ret ptr %9
}

; Function Attrs: mustprogress nounwind uwtable
define linkonce_odr hidden noundef i32 @_ZNK8GraphKit3bciEv(ptr noundef nonnull align 8 dereferenceable(84) %0) #1 comdat align 2 {
  %2 = alloca ptr, align 8
  store ptr %0, ptr %2, align 8
  %3 = load ptr, ptr %2, align 8
  %4 = getelementptr inbounds %class.GraphKit, ptr %3, i32 0, i32 6
  %5 = load i32, ptr %4, align 8
  ret i32 %5
}

; Function Attrs: mustprogress nounwind uwtable
define linkonce_odr hidden noundef ptr @_ZNK8GraphKit6methodEv(ptr noundef nonnull align 8 dereferenceable(84) %0) #1 comdat align 2 {
  %2 = alloca ptr, align 8
  store ptr %0, ptr %2, align 8
  %3 = load ptr, ptr %2, align 8
  %4 = getelementptr inbounds %class.GraphKit, ptr %3, i32 0, i32 8
  %5 = load ptr, ptr %4, align 8
  ret ptr %5
}

; Function Attrs: mustprogress nounwind uwtable
define hidden noundef ptr @_ZN25UncommonTrapCallGenerator8generateEP8JVMState(ptr noundef nonnull align 8 dereferenceable(24) %0, ptr noundef %1) unnamed_addr #1 align 2 {
  %3 = alloca ptr, align 8
  %4 = alloca ptr, align 8
  %5 = alloca %class.GraphKit, align 8
  %6 = alloca ptr, align 8
  %7 = alloca i32, align 4
  %8 = alloca i8, align 1
  store ptr %0, ptr %3, align 8
  store ptr %1, ptr %4, align 8
  %9 = load ptr, ptr %3, align 8
  %10 = load ptr, ptr %4, align 8
  call void @_ZN8GraphKitC1EP8JVMState(ptr noundef nonnull align 8 dereferenceable(84) %5, ptr noundef %10)
  %11 = getelementptr inbounds i8, ptr %5, i64 8
  %12 = getelementptr inbounds %class.Phase, ptr %11, i32 0, i32 1
  %13 = load ptr, ptr %12, align 8
  call void @_ZN7Compile21print_inlining_updateEP13CallGenerator(ptr noundef nonnull align 8 dereferenceable(2316) %13, ptr noundef %9)
  %14 = call noundef ptr @_ZNK8GraphKit6methodEv(ptr noundef nonnull align 8 dereferenceable(84) %5)
  %15 = call noundef i32 @_ZNK8GraphKit3bciEv(ptr noundef nonnull align 8 dereferenceable(84) %5)
  %16 = call noundef ptr @_ZN8ciMethod17get_method_at_bciEi(ptr noundef nonnull align 8 dereferenceable(160) %14, i32 noundef %15)
  store ptr %16, ptr %6, align 8
  %17 = load ptr, ptr %6, align 8
  %18 = call noundef i32 @_ZNK8ciMethod8arg_sizeEv(ptr noundef nonnull align 8 dereferenceable(160) %17)
  store i32 %18, ptr %7, align 4
  %19 = load i32, ptr %7, align 4
  call void @_ZN8GraphKit6inc_spEi(ptr noundef nonnull align 8 dereferenceable(84) %5, i32 noundef %19)
  %20 = getelementptr inbounds %class.UncommonTrapCallGenerator, ptr %9, i32 0, i32 1
  %21 = load i32, ptr %20, align 8
  %22 = icmp eq i32 %21, 4
  br i1 %22, label %23, label %35

23:                                               ; preds = %2
  %24 = getelementptr inbounds %class.UncommonTrapCallGenerator, ptr %9, i32 0, i32 2
  %25 = load i32, ptr %24, align 4
  %26 = icmp eq i32 %25, 1
  br i1 %26, label %27, label %35

27:                                               ; preds = %23
  store i8 1, ptr %8, align 1
  %28 = getelementptr inbounds %class.UncommonTrapCallGenerator, ptr %9, i32 0, i32 1
  %29 = load i32, ptr %28, align 8
  %30 = getelementptr inbounds %class.UncommonTrapCallGenerator, ptr %9, i32 0, i32 2
  %31 = load i32, ptr %30, align 4
  %32 = load i8, ptr %8, align 1
  %33 = trunc i8 %32 to i1
  %34 = call noundef ptr @_ZN8GraphKit13uncommon_trapEN14Deoptimization11DeoptReasonENS0_11DeoptActionEP7ciKlassPKcbb(ptr noundef nonnull align 8 dereferenceable(84) %5, i32 noundef %29, i32 noundef %31, ptr noundef null, ptr noundef @.str.19, i1 noundef zeroext false, i1 noundef zeroext %33)
  br label %41

35:                                               ; preds = %23, %2
  %36 = getelementptr inbounds %class.UncommonTrapCallGenerator, ptr %9, i32 0, i32 1
  %37 = load i32, ptr %36, align 8
  %38 = getelementptr inbounds %class.UncommonTrapCallGenerator, ptr %9, i32 0, i32 2
  %39 = load i32, ptr %38, align 4
  %40 = call noundef ptr @_ZN8GraphKit13uncommon_trapEN14Deoptimization11DeoptReasonENS0_11DeoptActionEP7ciKlassPKcbb(ptr noundef nonnull align 8 dereferenceable(84) %5, i32 noundef %37, i32 noundef %39, ptr noundef null, ptr noundef null, i1 noundef zeroext false, i1 noundef zeroext false)
  br label %41

41:                                               ; preds = %35, %27
  %42 = call noundef ptr @_ZN8GraphKit29transfer_exceptions_into_jvmsEv(ptr noundef nonnull align 8 dereferenceable(84) %5)
  ret ptr %42
}