; Function Attrs: mustprogress nounwind uwtable
define hidden noundef ptr @_ZN25UncommonTrapCallGenerator8generateEP8JVMState(ptr noundef nonnull align 8 dereferenceable(24) %0, ptr noundef %1) unnamed_addr #0 align 2 {
  %3 = alloca i8, align 1
  %4 = alloca ptr, align 8
  %5 = alloca %class.GraphKit, align 8
  call void @_ZN8GraphKitC1EP8JVMState(ptr noundef nonnull align 8 dereferenceable(84) %5, ptr noundef %1) #7
  %6 = getelementptr inbounds i8, ptr %5, i64 16
  %7 = load ptr, ptr %6, align 8
  call void @_ZN7Compile21print_inlining_updateEP13CallGenerator(ptr noundef nonnull align 8 dereferenceable(2316) %7, ptr noundef nonnull %0) #7
  %8 = getelementptr inbounds i8, ptr %5, i64 64
  %9 = load ptr, ptr %8, align 8
  %10 = getelementptr inbounds i8, ptr %5, i64 56
  %11 = load i32, ptr %10, align 8
  call void @llvm.lifetime.start.p0(i64 1, ptr nonnull %3)
  call void @llvm.lifetime.start.p0(i64 8, ptr nonnull %4)
  %12 = call noundef ptr @_ZN8ciMethod17get_method_at_bciEiRbPP11ciSignature(ptr noundef nonnull align 8 dereferenceable(160) %9, i32 noundef %11, ptr noundef nonnull align 1 dereferenceable(1) %3, ptr noundef nonnull %4) #7
  call void @llvm.lifetime.end.p0(i64 1, ptr nonnull %3)
  call void @llvm.lifetime.end.p0(i64 8, ptr nonnull %4)
  %13 = getelementptr inbounds i8, ptr %12, i64 48
  %14 = load ptr, ptr %13, align 8
  %15 = getelementptr inbounds i8, ptr %14, i64 48
  %16 = load i32, ptr %15, align 8
  %17 = getelementptr inbounds i8, ptr %12, i64 24
  %18 = load i32, ptr %17, align 4
  %19 = lshr i32 %18, 3
  %.lobit.i = and i32 %19, 1
  %20 = xor i32 %.lobit.i, 1
  %21 = getelementptr inbounds i8, ptr %5, i64 80
  %22 = load i32, ptr %21, align 8
  %23 = add i32 %22, %16
  %24 = add i32 %23, %20
  store i32 %24, ptr %21, align 8
  %25 = getelementptr inbounds i8, ptr %0, i64 16
  %26 = load i32, ptr %25, align 8
  %27 = icmp eq i32 %26, 4
  %28 = getelementptr inbounds i8, ptr %0, i64 20
  %29 = load i32, ptr %28, align 4
  %30 = icmp eq i32 %29, 1
  %or.cond = select i1 %27, i1 %30, i1 false
  br i1 %or.cond, label %31, label %33

31:                                               ; preds = %2
  %32 = call noundef ptr @_ZN8GraphKit13uncommon_trapEiP7ciKlassPKcbb(ptr noundef nonnull align 8 dereferenceable(84) %5, i32 noundef -34, ptr noundef null, ptr noundef nonnull @.str.19, i1 noundef zeroext false, i1 noundef zeroext true) #7
  br label %38

33:                                               ; preds = %2
  %34 = shl i32 %26, 3
  %35 = add nsw i32 %34, %29
  %36 = xor i32 %35, -1
  %37 = call noundef ptr @_ZN8GraphKit13uncommon_trapEiP7ciKlassPKcbb(ptr noundef nonnull align 8 dereferenceable(84) %5, i32 noundef %36, ptr noundef null, ptr noundef null, i1 noundef zeroext false, i1 noundef zeroext false) #7
  br label %38

38:                                               ; preds = %33, %31
  %39 = call noundef ptr @_ZN8GraphKit29transfer_exceptions_into_jvmsEv(ptr noundef nonnull align 8 dereferenceable(84) %5) #7
  ret ptr %39
}